; Function Attrs: mustprogress uwtable
define hidden noundef zeroext i1 @_ZNK6Assimp13ColladaLoader7CanReadERKNSt7__cxx1112basic_stringIcSt11char_traitsIcESaIcEEEPNS_8IOSystemEb(ptr nonnull readnone align 8 captures(none) %0, ptr noundef nonnull align 8 dereferenceable(32) %1, ptr noundef %2, i1 zeroext %3) unnamed_addr #5 align 2 personality ptr @__gxx_personality_v0 {
  %5 = alloca %"class.Assimp::ZipArchiveIOSystem", align 8
  %6 = alloca %"class.std::__cxx11::basic_string", align 8
  call void @llvm.lifetime.start.p0(i64 40, ptr nonnull %5) #33
  call void @_ZN6Assimp18ZipArchiveIOSystemC1EPNS_8IOSystemERKNSt7__cxx1112basic_stringIcSt11char_traitsIcESaIcEEEPKc(ptr noundef nonnull align 8 dereferenceable(40) %5, ptr noundef %2, ptr noundef nonnull align 8 dereferenceable(32) %1, ptr noundef nonnull @.str)
  %7 = invoke noundef zeroext i1 @_ZNK6Assimp18ZipArchiveIOSystem6isOpenEv(ptr noundef nonnull align 8 dereferenceable(40) %5)
          to label %8 unwind label %20

8:                                                ; preds = %4
  br i1 %7, label %9, label %24

9:                                                ; preds = %8
  call void @llvm.lifetime.start.p0(i64 32, ptr nonnull %6) #33
  invoke void @_ZN6Assimp13ColladaParser15ReadZaeManifestB5cxx11ERNS_18ZipArchiveIOSystemE(ptr dead_on_unwind nonnull writable sret(%"class.std::__cxx11::basic_string") align 8 %6, ptr noundef nonnull align 8 dereferenceable(40) %5)
          to label %10 unwind label %22

10:                                               ; preds = %9
  %11 = getelementptr inbounds nuw i8, ptr %6, i64 8
  %12 = load i64, ptr %11, align 8
  %13 = icmp ne i64 %12, 0
  %14 = load ptr, ptr %6, align 8
  %15 = getelementptr inbounds nuw i8, ptr %6, i64 16
  %16 = icmp eq ptr %14, %15
  br i1 %16, label %_ZNKSt7__cxx1112basic_stringIcSt11char_traitsIcESaIcEE11_M_is_localEv.exit.thread.i.i, label %_ZNKSt7__cxx1112basic_stringIcSt11char_traitsIcESaIcEE11_M_is_localEv.exit.i.i

_ZNKSt7__cxx1112basic_stringIcSt11char_traitsIcESaIcEE11_M_is_localEv.exit.thread.i.i: ; preds = %10
  %17 = icmp ult i64 %12, 16
  call void @llvm.assume(i1 %17)
  br label %_ZNSt7__cxx1112basic_stringIcSt11char_traitsIcESaIcEED2Ev.exit

_ZNKSt7__cxx1112basic_stringIcSt11char_traitsIcESaIcEE11_M_is_localEv.exit.i.i: ; preds = %10
  %18 = load i64, ptr %15, align 8
  %19 = add i64 %18, 1
  call void @_ZdlPvm(ptr noundef %14, i64 noundef %19) #34
  br label %_ZNSt7__cxx1112basic_stringIcSt11char_traitsIcESaIcEED2Ev.exit

_ZNSt7__cxx1112basic_stringIcSt11char_traitsIcESaIcEED2Ev.exit: ; preds = %_ZNKSt7__cxx1112basic_stringIcSt11char_traitsIcESaIcEE11_M_is_localEv.exit.thread.i.i, %_ZNKSt7__cxx1112basic_stringIcSt11char_traitsIcESaIcEE11_M_is_localEv.exit.i.i
  call void @llvm.lifetime.end.p0(i64 32, ptr nonnull %6) #33
  br label %26

20:                                               ; preds = %24, %4
  %21 = landingpad { ptr, i32 }
          cleanup
  br label %27

22:                                               ; preds = %9
  %23 = landingpad { ptr, i32 }
          cleanup
  call void @llvm.lifetime.end.p0(i64 32, ptr nonnull %6) #33
  br label %27

24:                                               ; preds = %8
  %25 = invoke noundef zeroext i1 @_ZN6Assimp12BaseImporter24SearchFileHeaderForTokenEPNS_8IOSystemERKNSt7__cxx1112basic_stringIcSt11char_traitsIcESaIcEEEPPKcmjbb(ptr noundef %2, ptr noundef nonnull align 8 dereferenceable(32) %1, ptr noundef nonnull @_ZZNK6Assimp13ColladaLoader7CanReadERKNSt7__cxx1112basic_stringIcSt11char_traitsIcESaIcEEEPNS_8IOSystemEbE6tokens, i64 noundef 1, i32 noundef 200, i1 noundef zeroext false, i1 noundef zeroext false)
          to label %26 unwind label %20

26:                                               ; preds = %24, %_ZNSt7__cxx1112basic_stringIcSt11char_traitsIcESaIcEED2Ev.exit
  %.07 = phi i1 [ %13, %_ZNSt7__cxx1112basic_stringIcSt11char_traitsIcESaIcEED2Ev.exit ], [ %25, %24 ]
  call void @_ZN6Assimp18ZipArchiveIOSystemD1Ev(ptr noundef nonnull align 8 dereferenceable(40) %5) #33
  call void @llvm.lifetime.end.p0(i64 40, ptr nonnull %5) #33
  ret i1 %.07

27:                                               ; preds = %22, %20
  %.pn = phi { ptr, i32 } [ %23, %22 ], [ %21, %20 ]
  call void @_ZN6Assimp18ZipArchiveIOSystemD1Ev(ptr noundef nonnull align 8 dereferenceable(40) %5) #33
  call void @llvm.lifetime.end.p0(i64 40, ptr nonnull %5) #33
  resume { ptr, i32 } %.pn
}